; Function Attrs: mustprogress nofree norecurse nosync nounwind willreturn memory(read, inaccessiblemem: none) uwtable
define hidden noundef range(i64 0, 4294967296) i64 @_ZNK6BitMap26count_one_bits_within_wordEmm(ptr nocapture noundef nonnull readonly align 8 dereferenceable(16) %0, i64 noundef %1, i64 noundef %2) local_unnamed_addr #4 align 2 {
  %.not = icmp eq i64 %1, %2
  br i1 %.not, label %15, label %4

4:                                                ; preds = %3
  %5 = and i64 %1, 63
  %notmask.i = shl nsw i64 -1, %5
  %6 = and i64 %2, 63
  %.not.i = icmp eq i64 %6, 0
  %.neg.i = shl nsw i64 -1, %6
  %7 = xor i64 %.neg.i, -1
  %.not11 = select i1 %.not.i, i64 -1, i64 %7
  %8 = and i64 %.not11, %notmask.i
  %9 = load ptr, ptr %0, align 8
  %10 = lshr i64 %1, 6
  %11 = getelementptr inbounds i64, ptr %9, i64 %10
  %12 = load i64, ptr %11, align 8
  %13 = and i64 %8, %12
  %14 = tail call range(i64 0, 65) i64 @llvm.ctpop.i64(i64 %13)
  br label %15

15:                                               ; preds = %3, %4
  %.0 = phi i64 [ %14, %4 ], [ 0, %3 ]
  ret i64 %.0
}